target datalayout = "e-m:e-p270:32:32-p271:32:32-p272:64:64-i64:64-i128:128-f80:128-n8:16:32:64-S128"
target triple = "x86_64-pc-linux-gnu"

%struct._psqlSettings = type { ptr, i32, ptr, i8, ptr, ptr, %struct.printQueryOpt, ptr, ptr, ptr, i8, i8, i32, i32, ptr, ptr, i8, [4 x ptr], i8, i32, ptr, i8, i32, ptr, ptr, i64, i64, i8, ptr, ptr, ptr, i8, i8, i8, i8, i8, i8, i8, i32, i32, i32, i32, i32, i32, i32, i32, ptr, ptr, ptr, i32, i8, i32 }
%struct.printQueryOpt = type { %struct.printTableOpt, ptr, ptr, ptr, i8, ptr, i32 }
%struct.printTableOpt = type { i32, i16, i32, i32, i16, i16, i32, i8, i8, i8, i8, i64, ptr, %struct.separator, %struct.separator, [2 x i8], i8, ptr, i32, i32, i32, i32, i32, i32 }
%struct.separator = type { ptr, i8 }
%struct.SchemaQuery = type { i32, ptr, ptr, ptr, ptr, ptr, i8, ptr, ptr, ptr, ptr }

@pset = external global %struct._psqlSettings, align 8
@completion_charpp = internal global ptr null, align 8
@completion_squery = internal global ptr null, align 8
@completion_verbatim = internal global i8 0, align 1

; Function Attrs: nounwind uwtable
define internal ptr @complete_from_versioned_schema_query(ptr noundef %0, i32 noundef %1) #0 {
  %3 = alloca ptr, align 8
  %4 = alloca ptr, align 8
  %5 = alloca i32, align 4
  %6 = alloca ptr, align 8
  %7 = alloca i32, align 4
  store ptr %0, ptr %4, align 8
  store i32 %1, ptr %5, align 4
  call void @llvm.lifetime.start.p0(i64 8, ptr %6) #8
  %8 = load ptr, ptr @completion_squery, align 8
  store ptr %8, ptr %6, align 8
  br label %9

9:                                                ; preds = %15, %2
  %10 = load i32, ptr getelementptr inbounds nuw (%struct._psqlSettings, ptr @pset, i32 0, i32 22), align 4
  %11 = load ptr, ptr %6, align 8
  %12 = getelementptr inbounds nuw %struct.SchemaQuery, ptr %11, i32 0, i32 0
  %13 = load i32, ptr %12, align 8
  %14 = icmp slt i32 %10, %13
  br i1 %14, label %15, label %18

15:                                               ; preds = %9
  %16 = load ptr, ptr %6, align 8
  %17 = getelementptr inbounds nuw %struct.SchemaQuery, ptr %16, i32 1
  store ptr %17, ptr %6, align 8
  br label %9, !llvm.loop !21

18:                                               ; preds = %9
  %19 = load ptr, ptr %6, align 8
  %20 = getelementptr inbounds nuw %struct.SchemaQuery, ptr %19, i32 0, i32 1
  %21 = load ptr, ptr %20, align 8
  %22 = icmp eq ptr %21, null
  br i1 %22, label %23, label %24

23:                                               ; preds = %18
  store ptr null, ptr %3, align 8
  store i32 1, ptr %7, align 4
  br label %32

24:                                               ; preds = %18
  %25 = load ptr, ptr %6, align 8
  %26 = load ptr, ptr @completion_charpp, align 8
  %27 = load i8, ptr @completion_verbatim, align 1, !range !6, !noundef !7
  %28 = trunc i8 %27 to i1
  %29 = load ptr, ptr %4, align 8
  %30 = load i32, ptr %5, align 4
  %31 = call ptr @_complete_from_query(ptr noundef null, ptr noundef %25, ptr noundef %26, i1 noundef zeroext %28, ptr noundef %29, i32 noundef %30)
  store ptr %31, ptr %3, align 8
  store i32 1, ptr %7, align 4
  br label %32

32:                                               ; preds = %24, %23
  call void @llvm.lifetime.end.p0(i64 8, ptr %6) #8
  %33 = load ptr, ptr %3, align 8
  ret ptr %33
}